target datalayout = "e-m:e-p270:32:32-p271:32:32-p272:64:64-i64:64-i128:128-f80:128-n8:16:32:64-S128"
target triple = "x86_64-pc-linux-gnu"

%struct.Vec_Int_t_ = type { i32, i32, ptr }

@.str.19 = private unnamed_addr constant [3 x i8] c"  \00", align 1
@.str.22 = private unnamed_addr constant [11 x i8] c"UX%d =%5d \00", align 1

; Function Attrs: inlinehint nounwind uwtable
define internal void @Vec_IntShrink(ptr noundef %0, i32 noundef %1) #2 {
  %3 = alloca ptr, align 8
  %4 = alloca i32, align 4
  store ptr %0, ptr %3, align 8, !tbaa !12
  store i32 %1, ptr %4, align 4, !tbaa !10
  %5 = load i32, ptr %4, align 4, !tbaa !10
  %6 = load ptr, ptr %3, align 8, !tbaa !12
  %7 = getelementptr inbounds nuw %struct.Vec_Int_t_, ptr %6, i32 0, i32 1
  store i32 %5, ptr %7, align 4, !tbaa !14
  ret void
}

; Function Attrs: inlinehint nounwind uwtable
define internal i32 @Abc_Lit2Var(i32 noundef %0) #2 {
  %2 = alloca i32, align 4
  store i32 %0, ptr %2, align 4, !tbaa !10
  %3 = load i32, ptr %2, align 4, !tbaa !10
  %4 = ashr i32 %3, 1
  ret i32 %4
}

; Function Attrs: inlinehint nounwind uwtable
define internal i32 @Gia_ManFindFirstCommonLit(ptr noundef %0, ptr noundef %1, i32 noundef %2) #2 {
  %4 = alloca i32, align 4
  %5 = alloca ptr, align 8
  %6 = alloca ptr, align 8
  %7 = alloca i32, align 4
  %8 = alloca ptr, align 8
  %9 = alloca ptr, align 8
  %10 = alloca ptr, align 8
  %11 = alloca ptr, align 8
  %12 = alloca ptr, align 8
  %13 = alloca ptr, align 8
  %14 = alloca i32, align 4
  %15 = alloca i32, align 4
  store ptr %0, ptr %5, align 8, !tbaa !12
  store ptr %1, ptr %6, align 8, !tbaa !12
  store i32 %2, ptr %7, align 4, !tbaa !10
  call void @llvm.lifetime.start.p0(i64 8, ptr %8) #14
  %16 = load ptr, ptr %5, align 8, !tbaa !12
  %17 = getelementptr inbounds nuw %struct.Vec_Int_t_, ptr %16, i32 0, i32 2
  %18 = load ptr, ptr %17, align 8, !tbaa !18
  store ptr %18, ptr %8, align 8, !tbaa !61
  call void @llvm.lifetime.start.p0(i64 8, ptr %9) #14
  %19 = load ptr, ptr %6, align 8, !tbaa !12
  %20 = getelementptr inbounds nuw %struct.Vec_Int_t_, ptr %19, i32 0, i32 2
  %21 = load ptr, ptr %20, align 8, !tbaa !18
  store ptr %21, ptr %9, align 8, !tbaa !61
  call void @llvm.lifetime.start.p0(i64 8, ptr %10) #14
  %22 = load ptr, ptr %5, align 8, !tbaa !12
  %23 = getelementptr inbounds nuw %struct.Vec_Int_t_, ptr %22, i32 0, i32 2
  %24 = load ptr, ptr %23, align 8, !tbaa !18
  %25 = load ptr, ptr %5, align 8, !tbaa !12
  %26 = getelementptr inbounds nuw %struct.Vec_Int_t_, ptr %25, i32 0, i32 1
  %27 = load i32, ptr %26, align 4, !tbaa !14
  %28 = sext i32 %27 to i64
  %29 = getelementptr inbounds i32, ptr %24, i64 %28
  store ptr %29, ptr %10, align 8, !tbaa !61
  call void @llvm.lifetime.start.p0(i64 8, ptr %11) #14
  %30 = load ptr, ptr %6, align 8, !tbaa !12
  %31 = getelementptr inbounds nuw %struct.Vec_Int_t_, ptr %30, i32 0, i32 2
  %32 = load ptr, ptr %31, align 8, !tbaa !18
  %33 = load ptr, ptr %6, align 8, !tbaa !12
  %34 = getelementptr inbounds nuw %struct.Vec_Int_t_, ptr %33, i32 0, i32 1
  %35 = load i32, ptr %34, align 4, !tbaa !14
  %36 = sext i32 %35 to i64
  %37 = getelementptr inbounds i32, ptr %32, i64 %36
  store ptr %37, ptr %11, align 8, !tbaa !61
  call void @llvm.lifetime.start.p0(i64 8, ptr %12) #14
  %38 = load ptr, ptr %5, align 8, !tbaa !12
  %39 = getelementptr inbounds nuw %struct.Vec_Int_t_, ptr %38, i32 0, i32 2
  %40 = load ptr, ptr %39, align 8, !tbaa !18
  store ptr %40, ptr %12, align 8, !tbaa !61
  call void @llvm.lifetime.start.p0(i64 8, ptr %13) #14
  %41 = load ptr, ptr %6, align 8, !tbaa !12
  %42 = getelementptr inbounds nuw %struct.Vec_Int_t_, ptr %41, i32 0, i32 2
  %43 = load ptr, ptr %42, align 8, !tbaa !18
  store ptr %43, ptr %13, align 8, !tbaa !61
  call void @llvm.lifetime.start.p0(i64 4, ptr %14) #14
  store i32 0, ptr %14, align 4, !tbaa !10
  br label %44

44:                                               ; preds = %98, %3
  %45 = load ptr, ptr %8, align 8, !tbaa !61
  %46 = load ptr, ptr %10, align 8, !tbaa !61
  %47 = icmp ult ptr %45, %46
  br i1 %47, label %48, label %52

48:                                               ; preds = %44
  %49 = load ptr, ptr %9, align 8, !tbaa !61
  %50 = load ptr, ptr %11, align 8, !tbaa !61
  %51 = icmp ult ptr %49, %50
  br label %52

52:                                               ; preds = %48, %44
  %53 = phi i1 [ false, %44 ], [ %51, %48 ]
  br i1 %53, label %54, label %99

54:                                               ; preds = %52
  %55 = load ptr, ptr %8, align 8, !tbaa !61
  %56 = load i32, ptr %55, align 4, !tbaa !10
  %57 = call i32 @Abc_Lit2Var(i32 noundef %56)
  %58 = load ptr, ptr %9, align 8, !tbaa !61
  %59 = load i32, ptr %58, align 4, !tbaa !10
  %60 = call i32 @Abc_Lit2Var(i32 noundef %59)
  %61 = icmp eq i32 %57, %60
  br i1 %61, label %62, label %79

62:                                               ; preds = %54
  %63 = load ptr, ptr %8, align 8, !tbaa !61
  %64 = load i32, ptr %63, align 4, !tbaa !10
  %65 = load ptr, ptr %9, align 8, !tbaa !61
  %66 = load i32, ptr %65, align 4, !tbaa !10
  %67 = icmp ne i32 %64, %66
  br i1 %67, label %68, label %71

68:                                               ; preds = %62
  %69 = load ptr, ptr %8, align 8, !tbaa !61
  %70 = load i32, ptr %69, align 4, !tbaa !10
  store i32 %70, ptr %4, align 4
  store i32 1, ptr %15, align 4
  br label %142

71:                                               ; preds = %62
  %72 = load ptr, ptr %8, align 8, !tbaa !61
  %73 = getelementptr inbounds nuw i32, ptr %72, i32 1
  store ptr %73, ptr %8, align 8, !tbaa !61
  %74 = load ptr, ptr %9, align 8, !tbaa !61
  %75 = getelementptr inbounds nuw i32, ptr %74, i32 1
  store ptr %75, ptr %9, align 8, !tbaa !61
  br label %76

76:                                               ; preds = %71
  %77 = load i32, ptr %14, align 4, !tbaa !10
  %78 = add nsw i32 %77, 1
  store i32 %78, ptr %14, align 4, !tbaa !10
  br label %98

79:                                               ; preds = %54
  %80 = load ptr, ptr %8, align 8, !tbaa !61
  %81 = load i32, ptr %80, align 4, !tbaa !10
  %82 = load ptr, ptr %9, align 8, !tbaa !61
  %83 = load i32, ptr %82, align 4, !tbaa !10
  %84 = icmp slt i32 %81, %83
  br i1 %84, label %85, label %91

85:                                               ; preds = %79
  %86 = load ptr, ptr %8, align 8, !tbaa !61
  %87 = getelementptr inbounds nuw i32, ptr %86, i32 1
  store ptr %87, ptr %8, align 8, !tbaa !61
  %88 = load i32, ptr %86, align 4, !tbaa !10
  %89 = load ptr, ptr %12, align 8, !tbaa !61
  %90 = getelementptr inbounds nuw i32, ptr %89, i32 1
  store ptr %90, ptr %12, align 8, !tbaa !61
  store i32 %88, ptr %89, align 4, !tbaa !10
  br label %97

91:                                               ; preds = %79
  %92 = load ptr, ptr %9, align 8, !tbaa !61
  %93 = getelementptr inbounds nuw i32, ptr %92, i32 1
  store ptr %93, ptr %9, align 8, !tbaa !61
  %94 = load i32, ptr %92, align 4, !tbaa !10
  %95 = load ptr, ptr %13, align 8, !tbaa !61
  %96 = getelementptr inbounds nuw i32, ptr %95, i32 1
  store ptr %96, ptr %13, align 8, !tbaa !61
  store i32 %94, ptr %95, align 4, !tbaa !10
  br label %97

97:                                               ; preds = %91, %85
  br label %98

98:                                               ; preds = %97, %76
  br label %44, !llvm.loop !153

99:                                               ; preds = %52
  br label %100

100:                                              ; preds = %104, %99
  %101 = load ptr, ptr %8, align 8, !tbaa !61
  %102 = load ptr, ptr %10, align 8, !tbaa !61
  %103 = icmp ult ptr %101, %102
  br i1 %103, label %104, label %110

104:                                              ; preds = %100
  %105 = load ptr, ptr %8, align 8, !tbaa !61
  %106 = getelementptr inbounds nuw i32, ptr %105, i32 1
  store ptr %106, ptr %8, align 8, !tbaa !61
  %107 = load i32, ptr %105, align 4, !tbaa !10
  %108 = load ptr, ptr %12, align 8, !tbaa !61
  %109 = getelementptr inbounds nuw i32, ptr %108, i32 1
  store ptr %109, ptr %12, align 8, !tbaa !61
  store i32 %107, ptr %108, align 4, !tbaa !10
  br label %100, !llvm.loop !154

110:                                              ; preds = %100
  br label %111

111:                                              ; preds = %115, %110
  %112 = load ptr, ptr %9, align 8, !tbaa !61
  %113 = load ptr, ptr %11, align 8, !tbaa !61
  %114 = icmp ult ptr %112, %113
  br i1 %114, label %115, label %121

115:                                              ; preds = %111
  %116 = load ptr, ptr %9, align 8, !tbaa !61
  %117 = getelementptr inbounds nuw i32, ptr %116, i32 1
  store ptr %117, ptr %9, align 8, !tbaa !61
  %118 = load i32, ptr %116, align 4, !tbaa !10
  %119 = load ptr, ptr %13, align 8, !tbaa !61
  %120 = getelementptr inbounds nuw i32, ptr %119, i32 1
  store ptr %120, ptr %13, align 8, !tbaa !61
  store i32 %118, ptr %119, align 4, !tbaa !10
  br label %111, !llvm.loop !155

121:                                              ; preds = %111
  %122 = load ptr, ptr %5, align 8, !tbaa !12
  %123 = load ptr, ptr %12, align 8, !tbaa !61
  %124 = load ptr, ptr %5, align 8, !tbaa !12
  %125 = getelementptr inbounds nuw %struct.Vec_Int_t_, ptr %124, i32 0, i32 2
  %126 = load ptr, ptr %125, align 8, !tbaa !18
  %127 = ptrtoint ptr %123 to i64
  %128 = ptrtoint ptr %126 to i64
  %129 = sub i64 %127, %128
  %130 = sdiv exact i64 %129, 4
  %131 = trunc i64 %130 to i32
  call void @Vec_IntShrink(ptr noundef %122, i32 noundef %131)
  %132 = load ptr, ptr %6, align 8, !tbaa !12
  %133 = load ptr, ptr %13, align 8, !tbaa !61
  %134 = load ptr, ptr %6, align 8, !tbaa !12
  %135 = getelementptr inbounds nuw %struct.Vec_Int_t_, ptr %134, i32 0, i32 2
  %136 = load ptr, ptr %135, align 8, !tbaa !18
  %137 = ptrtoint ptr %133 to i64
  %138 = ptrtoint ptr %136 to i64
  %139 = sub i64 %137, %138
  %140 = sdiv exact i64 %139, 4
  %141 = trunc i64 %140 to i32
  call void @Vec_IntShrink(ptr noundef %132, i32 noundef %141)
  store i32 -1, ptr %4, align 4
  store i32 1, ptr %15, align 4
  br label %142

142:                                              ; preds = %121, %68
  call void @llvm.lifetime.end.p0(i64 4, ptr %14) #14
  call void @llvm.lifetime.end.p0(i64 8, ptr %13) #14
  call void @llvm.lifetime.end.p0(i64 8, ptr %12) #14
  call void @llvm.lifetime.end.p0(i64 8, ptr %11) #14
  call void @llvm.lifetime.end.p0(i64 8, ptr %10) #14
  call void @llvm.lifetime.end.p0(i64 8, ptr %9) #14
  call void @llvm.lifetime.end.p0(i64 8, ptr %8) #14
  %143 = load i32, ptr %4, align 4
  ret i32 %143
}

; Function Attrs: inlinehint nounwind uwtable
define internal i32 @Vec_IntSize(ptr noundef %0) #2 {
  %2 = alloca ptr, align 8
  store ptr %0, ptr %2, align 8, !tbaa !12
  %3 = load ptr, ptr %2, align 8, !tbaa !12
  %4 = getelementptr inbounds nuw %struct.Vec_Int_t_, ptr %3, i32 0, i32 1
  %5 = load i32, ptr %4, align 4, !tbaa !14
  ret i32 %5
}

; Function Attrs: inlinehint nounwind uwtable
define internal void @Vec_IntClear(ptr noundef %0) #2 {
  %2 = alloca ptr, align 8
  store ptr %0, ptr %2, align 8, !tbaa !12
  %3 = load ptr, ptr %2, align 8, !tbaa !12
  %4 = getelementptr inbounds nuw %struct.Vec_Int_t_, ptr %3, i32 0, i32 1
  store i32 0, ptr %4, align 4, !tbaa !14
  ret void
}

; Function Attrs: nounwind uwtable
define i32 @Gia_ManFindXor(ptr noundef %0, ptr noundef %1, i32 noundef %2, ptr noundef %3, ptr noundef %4, i32 noundef %5) #0 {
  %7 = alloca ptr, align 8
  %8 = alloca ptr, align 8
  %9 = alloca i32, align 4
  %10 = alloca ptr, align 8
  %11 = alloca ptr, align 8
  %12 = alloca i32, align 4
  %13 = alloca i32, align 4
  store ptr %0, ptr %7, align 8, !tbaa !150
  store ptr %1, ptr %8, align 8, !tbaa !80
  store i32 %2, ptr %9, align 4, !tbaa !10
  store ptr %3, ptr %10, align 8, !tbaa !12
  store ptr %4, ptr %11, align 8, !tbaa !125
  store i32 %5, ptr %12, align 4, !tbaa !10
  call void @llvm.lifetime.start.p0(i64 4, ptr %13) #14
  %14 = load i32, ptr %12, align 4, !tbaa !10
  %15 = icmp ne i32 %14, 0
  br i1 %15, label %16, label %18

16:                                               ; preds = %6
  %17 = call i32 (ptr, ...) @printf(ptr noundef @.str.19)
  br label %18

18:                                               ; preds = %16, %6
  store i32 0, ptr %13, align 4, !tbaa !10
  br label %19

19:                                               ; preds = %61, %18
  %20 = load i32, ptr %13, align 4, !tbaa !10
  %21 = icmp slt i32 %20, 2
  br i1 %21, label %22, label %64

22:                                               ; preds = %19
  %23 = load ptr, ptr %11, align 8, !tbaa !125
  %24 = load i32, ptr %13, align 4, !tbaa !10
  %25 = sext i32 %24 to i64
  %26 = getelementptr inbounds ptr, ptr %23, i64 %25
  %27 = load ptr, ptr %26, align 8, !tbaa !12
  call void @Vec_IntClear(ptr noundef %27)
  %28 = load ptr, ptr %7, align 8, !tbaa !150
  %29 = load i32, ptr %13, align 4, !tbaa !10
  %30 = sext i32 %29 to i64
  %31 = getelementptr inbounds ptr, ptr %28, i64 %30
  %32 = load ptr, ptr %31, align 8, !tbaa !76
  %33 = load ptr, ptr %7, align 8, !tbaa !150
  %34 = load i32, ptr %13, align 4, !tbaa !10
  %35 = icmp ne i32 %34, 0
  %36 = xor i1 %35, true
  %37 = zext i1 %36 to i32
  %38 = sext i32 %37 to i64
  %39 = getelementptr inbounds ptr, ptr %33, i64 %38
  %40 = load ptr, ptr %39, align 8, !tbaa !76
  %41 = load ptr, ptr %10, align 8, !tbaa !12
  %42 = load ptr, ptr %8, align 8, !tbaa !80
  %43 = load i32, ptr %9, align 4, !tbaa !10
  %44 = load ptr, ptr %11, align 8, !tbaa !125
  %45 = load i32, ptr %13, align 4, !tbaa !10
  %46 = sext i32 %45 to i64
  %47 = getelementptr inbounds ptr, ptr %44, i64 %46
  %48 = load ptr, ptr %47, align 8, !tbaa !12
  call void @Gia_ManFindXorInt(ptr noundef %32, ptr noundef %40, ptr noundef %41, ptr noundef %42, i32 noundef %43, ptr noundef %48)
  %49 = load i32, ptr %12, align 4, !tbaa !10
  %50 = icmp ne i32 %49, 0
  br i1 %50, label %51, label %60

51:                                               ; preds = %22
  %52 = load i32, ptr %13, align 4, !tbaa !10
  %53 = load ptr, ptr %11, align 8, !tbaa !125
  %54 = load i32, ptr %13, align 4, !tbaa !10
  %55 = sext i32 %54 to i64
  %56 = getelementptr inbounds ptr, ptr %53, i64 %55
  %57 = load ptr, ptr %56, align 8, !tbaa !12
  %58 = call i32 @Vec_IntSize(ptr noundef %57)
  %59 = call i32 (ptr, ...) @printf(ptr noundef @.str.22, i32 noundef %52, i32 noundef %58)
  br label %60

60:                                               ; preds = %51, %22
  br label %61

61:                                               ; preds = %60
  %62 = load i32, ptr %13, align 4, !tbaa !10
  %63 = add nsw i32 %62, 1
  store i32 %63, ptr %13, align 4, !tbaa !10
  br label %19, !llvm.loop !166

64:                                               ; preds = %19
  %65 = load ptr, ptr %11, align 8, !tbaa !125
  %66 = getelementptr inbounds ptr, ptr %65, i64 0
  %67 = load ptr, ptr %66, align 8, !tbaa !12
  %68 = load ptr, ptr %11, align 8, !tbaa !125
  %69 = getelementptr inbounds ptr, ptr %68, i64 1
  %70 = load ptr, ptr %69, align 8, !tbaa !12
  %71 = load i32, ptr %12, align 4, !tbaa !10
  %72 = call i32 @Gia_ManFindFirstCommonLit(ptr noundef %67, ptr noundef %70, i32 noundef %71)
  call void @llvm.lifetime.end.p0(i64 4, ptr %13) #14
  ret i32 %72
}