; Function Attrs: nounwind uwtable
define i32 @Gia_ManFindXor(ptr noundef readonly captures(none) %0, ptr noundef readonly captures(none) %1, i32 noundef %2, ptr noundef readonly captures(none) %3, ptr noundef readonly captures(none) %4, i32 noundef %5) local_unnamed_addr #0 {
  %.not = icmp eq i32 %5, 0
  br i1 %.not, label %.split.us, label %7

7:                                                ; preds = %6
  %8 = tail call i32 (ptr, ...) @printf(ptr noundef nonnull dereferenceable(1) @.str.19)
  br label %.split

.split.us:                                        ; preds = %6
  %9 = load ptr, ptr %4, align 8, !tbaa !69
  %10 = getelementptr inbounds nuw i8, ptr %9, i64 4
  store i32 0, ptr %10, align 4, !tbaa !28
  %11 = load ptr, ptr %0, align 8, !tbaa !78
  tail call void @Gia_ManFindXorInt(ptr noundef %11, ptr poison, ptr noundef %3, ptr noundef %1, i32 noundef %2, ptr noundef %9)
  %12 = getelementptr inbounds nuw i8, ptr %4, i64 8
  %13 = load ptr, ptr %12, align 8, !tbaa !69
  %14 = getelementptr inbounds nuw i8, ptr %13, i64 4
  store i32 0, ptr %14, align 4, !tbaa !28
  %15 = getelementptr inbounds nuw i8, ptr %0, i64 8
  %16 = load ptr, ptr %15, align 8, !tbaa !78
  tail call void @Gia_ManFindXorInt(ptr noundef %16, ptr poison, ptr noundef %3, ptr noundef %1, i32 noundef %2, ptr noundef %13)
  br label %.split26.us

.split:                                           ; preds = %7, %.split
  %17 = phi i1 [ true, %7 ], [ false, %.split ]
  %indvars.iv = phi i64 [ 0, %7 ], [ 1, %.split ]
  %18 = getelementptr inbounds nuw ptr, ptr %4, i64 %indvars.iv
  %19 = load ptr, ptr %18, align 8, !tbaa !69
  %20 = getelementptr inbounds nuw i8, ptr %19, i64 4
  store i32 0, ptr %20, align 4, !tbaa !28
  %21 = getelementptr inbounds nuw ptr, ptr %0, i64 %indvars.iv
  %22 = load ptr, ptr %21, align 8, !tbaa !78
  %23 = trunc nuw nsw i64 %indvars.iv to i32
  tail call void @Gia_ManFindXorInt(ptr noundef %22, ptr poison, ptr noundef %3, ptr noundef %1, i32 noundef %2, ptr noundef %19)
  %24 = load ptr, ptr %18, align 8, !tbaa !69
  %25 = getelementptr i8, ptr %24, i64 4
  %.val = load i32, ptr %25, align 4, !tbaa !28
  %26 = tail call i32 (ptr, ...) @printf(ptr noundef nonnull dereferenceable(1) @.str.22, i32 noundef %23, i32 noundef %.val)
  br i1 %17, label %.split, label %.split26.us, !llvm.loop !153

.split26.us:                                      ; preds = %.split, %.split.us
  %27 = load ptr, ptr %4, align 8, !tbaa !69
  %28 = getelementptr inbounds nuw i8, ptr %4, i64 8
  %29 = load ptr, ptr %28, align 8, !tbaa !69
  %30 = getelementptr inbounds nuw i8, ptr %27, i64 8
  %31 = load ptr, ptr %30, align 8, !tbaa !30
  %32 = getelementptr inbounds nuw i8, ptr %29, i64 8
  %33 = load ptr, ptr %32, align 8, !tbaa !30
  %34 = getelementptr inbounds nuw i8, ptr %27, i64 4
  %35 = load i32, ptr %34, align 4, !tbaa !28
  %36 = sext i32 %35 to i64
  %37 = getelementptr inbounds i32, ptr %31, i64 %36
  %38 = getelementptr inbounds nuw i8, ptr %29, i64 4
  %39 = load i32, ptr %38, align 4, !tbaa !28
  %40 = sext i32 %39 to i64
  %41 = getelementptr inbounds i32, ptr %33, i64 %40
  %42 = icmp sgt i32 %35, 0
  %43 = icmp sgt i32 %39, 0
  %44 = select i1 %42, i1 %43, i1 false
  br i1 %44, label %.lr.ph.i, label %.preheader55.i

.preheader55.i:                                   ; preds = %61, %.split26.us
  %.049.lcssa.i = phi ptr [ %33, %.split26.us ], [ %.150.i, %61 ]
  %.046.lcssa.i = phi ptr [ %31, %.split26.us ], [ %.147.i, %61 ]
  %.042.lcssa.i = phi ptr [ %31, %.split26.us ], [ %.143.i, %61 ]
  %.040.lcssa.i = phi ptr [ %33, %.split26.us ], [ %.141.i, %61 ]
  %45 = icmp ult ptr %.046.lcssa.i, %37
  br i1 %45, label %.lr.ph70.i, label %.preheader.i

.lr.ph.i:                                         ; preds = %.split26.us, %61
  %.04063.i = phi ptr [ %.141.i, %61 ], [ %33, %.split26.us ]
  %.04262.i = phi ptr [ %.143.i, %61 ], [ %31, %.split26.us ]
  %.04661.i = phi ptr [ %.147.i, %61 ], [ %31, %.split26.us ]
  %.04960.i = phi ptr [ %.150.i, %61 ], [ %33, %.split26.us ]
  %46 = load i32, ptr %.04661.i, align 4, !tbaa !31
  %47 = load i32, ptr %.04960.i, align 4, !tbaa !31
  %.unshifted.i = xor i32 %47, %46
  %48 = icmp ult i32 %.unshifted.i, 2
  br i1 %48, label %49, label %53

49:                                               ; preds = %.lr.ph.i
  %.not.i = icmp eq i32 %46, %47
  br i1 %.not.i, label %50, label %Gia_ManFindFirstCommonLit.exit

50:                                               ; preds = %49
  %51 = getelementptr inbounds nuw i8, ptr %.04661.i, i64 4
  %52 = getelementptr inbounds nuw i8, ptr %.04960.i, i64 4
  br label %61

53:                                               ; preds = %.lr.ph.i
  %54 = icmp slt i32 %46, %47
  br i1 %54, label %55, label %58

55:                                               ; preds = %53
  %56 = getelementptr inbounds nuw i8, ptr %.04661.i, i64 4
  %57 = getelementptr inbounds nuw i8, ptr %.04262.i, i64 4
  store i32 %46, ptr %.04262.i, align 4, !tbaa !31
  br label %61

58:                                               ; preds = %53
  %59 = getelementptr inbounds nuw i8, ptr %.04960.i, i64 4
  %60 = getelementptr inbounds nuw i8, ptr %.04063.i, i64 4
  store i32 %47, ptr %.04063.i, align 4, !tbaa !31
  br label %61

61:                                               ; preds = %58, %55, %50
  %.150.i = phi ptr [ %52, %50 ], [ %.04960.i, %55 ], [ %59, %58 ]
  %.147.i = phi ptr [ %51, %50 ], [ %56, %55 ], [ %.04661.i, %58 ]
  %.143.i = phi ptr [ %.04262.i, %50 ], [ %57, %55 ], [ %.04262.i, %58 ]
  %.141.i = phi ptr [ %.04063.i, %50 ], [ %.04063.i, %55 ], [ %60, %58 ]
  %62 = icmp ult ptr %.147.i, %37
  %63 = icmp ult ptr %.150.i, %41
  %64 = select i1 %62, i1 %63, i1 false
  br i1 %64, label %.lr.ph.i, label %.preheader55.i, !llvm.loop !138

.preheader.i:                                     ; preds = %.lr.ph70.i, %.preheader55.i
  %.244.lcssa.i = phi ptr [ %.042.lcssa.i, %.preheader55.i ], [ %68, %.lr.ph70.i ]
  %65 = icmp ult ptr %.049.lcssa.i, %41
  br i1 %65, label %.lr.ph74.i, label %._crit_edge.i

.lr.ph70.i:                                       ; preds = %.preheader55.i, %.lr.ph70.i
  %.24469.i = phi ptr [ %68, %.lr.ph70.i ], [ %.042.lcssa.i, %.preheader55.i ]
  %.24868.i = phi ptr [ %66, %.lr.ph70.i ], [ %.046.lcssa.i, %.preheader55.i ]
  %66 = getelementptr inbounds nuw i8, ptr %.24868.i, i64 4
  %67 = load i32, ptr %.24868.i, align 4, !tbaa !31
  %68 = getelementptr inbounds nuw i8, ptr %.24469.i, i64 4
  store i32 %67, ptr %.24469.i, align 4, !tbaa !31
  %69 = icmp ult ptr %66, %37
  br i1 %69, label %.lr.ph70.i, label %.preheader.i, !llvm.loop !139

.lr.ph74.i:                                       ; preds = %.preheader.i, %.lr.ph74.i
  %.273.i = phi ptr [ %72, %.lr.ph74.i ], [ %.040.lcssa.i, %.preheader.i ]
  %.25172.i = phi ptr [ %70, %.lr.ph74.i ], [ %.049.lcssa.i, %.preheader.i ]
  %70 = getelementptr inbounds nuw i8, ptr %.25172.i, i64 4
  %71 = load i32, ptr %.25172.i, align 4, !tbaa !31
  %72 = getelementptr inbounds nuw i8, ptr %.273.i, i64 4
  store i32 %71, ptr %.273.i, align 4, !tbaa !31
  %73 = icmp ult ptr %70, %41
  br i1 %73, label %.lr.ph74.i, label %._crit_edge.i, !llvm.loop !140

._crit_edge.i:                                    ; preds = %.lr.ph74.i, %.preheader.i
  %.2.lcssa.i = phi ptr [ %.040.lcssa.i, %.preheader.i ], [ %72, %.lr.ph74.i ]
  %74 = ptrtoint ptr %.244.lcssa.i to i64
  %75 = ptrtoint ptr %31 to i64
  %76 = sub i64 %74, %75
  %77 = lshr exact i64 %76, 2
  %78 = trunc i64 %77 to i32
  store i32 %78, ptr %34, align 4, !tbaa !28
  %79 = ptrtoint ptr %.2.lcssa.i to i64
  %80 = ptrtoint ptr %33 to i64
  %81 = sub i64 %79, %80
  %82 = lshr exact i64 %81, 2
  %83 = trunc i64 %82 to i32
  store i32 %83, ptr %38, align 4, !tbaa !28
  br label %Gia_ManFindFirstCommonLit.exit

Gia_ManFindFirstCommonLit.exit:                   ; preds = %49, %._crit_edge.i
  %.045.i = phi i32 [ -1, %._crit_edge.i ], [ %46, %49 ]
  ret i32 %.045.i
}